target datalayout = "e-m:e-p270:32:32-p271:32:32-p272:64:64-i64:64-i128:128-f80:128-n8:16:32:64-S128"
target triple = "x86_64-pc-linux-gnu"

%"struct.std::_Rb_tree_key_compare" = type { %"struct.std::less" }
%"struct.std::less" = type { i8 }
%"struct.std::_Rb_tree_header" = type { %"struct.std::_Rb_tree_node_base", i64 }
%"struct.std::_Rb_tree_node_base" = type { i32, ptr, ptr, ptr }
%"class.std::__cxx11::basic_string" = type { %"struct.std::__cxx11::basic_string<char>::_Alloc_hider", i64, %union.anon }
%"struct.std::__cxx11::basic_string<char>::_Alloc_hider" = type { ptr }
%union.anon = type { i64, [8 x i8] }
%"class.std::allocator.0" = type { i8 }
%"struct.casadi::SundialsMemory" = type <{ %"struct.casadi::IntegratorMemory", ptr, ptr, ptr, ptr, ptr, ptr, i8, [7 x i8], ptr, ptr, ptr, ptr, ptr, ptr, ptr, ptr, i64, i64, i64, i64, i32, i32, double, double, double, double, i64, i64, i64, i64, i64, i64, i32, i32, double, double, double, double, i64, i64, i64, i64, i64, i64, i64, i64, ptr, ptr, i32, [4 x i8], ptr, i32, [4 x i8] }>
%"struct.casadi::IntegratorMemory" = type { %"struct.casadi::OracleMemory", i64, double, double, double }
%"struct.casadi::OracleMemory" = type { %"struct.casadi::FunctionMemory", ptr, ptr, ptr, ptr, %"class.std::vector.69" }
%"struct.casadi::FunctionMemory" = type { %"struct.casadi::ProtoFunctionMemory" }
%"struct.casadi::ProtoFunctionMemory" = type { %"class.std::map.64", ptr }
%"class.std::map.64" = type { %"class.std::_Rb_tree.65" }
%"class.std::_Rb_tree.65" = type { %"struct.std::_Rb_tree<std::__cxx11::basic_string<char>, std::pair<const std::__cxx11::basic_string<char>, casadi::FStats>, std::_Select1st<std::pair<const std::__cxx11::basic_string<char>, casadi::FStats>>, std::less<std::__cxx11::basic_string<char>>>::_Rb_tree_impl" }
%"struct.std::_Rb_tree<std::__cxx11::basic_string<char>, std::pair<const std::__cxx11::basic_string<char>, casadi::FStats>, std::_Select1st<std::pair<const std::__cxx11::basic_string<char>, casadi::FStats>>, std::less<std::__cxx11::basic_string<char>>>::_Rb_tree_impl" = type { %"struct.std::_Rb_tree_key_compare", %"struct.std::_Rb_tree_header" }
%"class.std::vector.69" = type { %"struct.std::_Vector_base.70" }
%"struct.std::_Vector_base.70" = type { %"struct.std::_Vector_base<casadi::LocalOracleMemory *, std::allocator<casadi::LocalOracleMemory *>>::_Vector_impl" }
%"struct.std::_Vector_base<casadi::LocalOracleMemory *, std::allocator<casadi::LocalOracleMemory *>>::_Vector_impl" = type { %"struct.std::_Vector_base<casadi::LocalOracleMemory *, std::allocator<casadi::LocalOracleMemory *>>::_Vector_impl_data" }
%"struct.std::_Vector_base<casadi::LocalOracleMemory *, std::allocator<casadi::LocalOracleMemory *>>::_Vector_impl_data" = type { ptr, ptr, ptr }

@.str.70 = private unnamed_addr constant [5 x i8] c"jacF\00", align 1
@.str.164 = private unnamed_addr constant [50 x i8] c"basic_string: construction from null is not valid\00", align 1

; Function Attrs: mustprogress nounwind uwtable
define linkonce_odr hidden noundef i64 @_ZNSt11char_traitsIcE6lengthEPKc(ptr noundef %0) #5 comdat align 2 {
  %2 = alloca ptr, align 8
  store ptr %0, ptr %2, align 8
  %3 = load ptr, ptr %2, align 8
  %4 = call i64 @strlen(ptr noundef %3) #3
  ret i64 %4
}

; Function Attrs: mustprogress nounwind uwtable
define linkonce_odr hidden void @_ZNSt7__cxx1112basic_stringIcSt11char_traitsIcESaIcEE12_Alloc_hiderD2Ev(ptr noundef nonnull align 8 dereferenceable(8) %0) unnamed_addr #5 comdat align 2 {
  %2 = alloca ptr, align 8
  store ptr %0, ptr %2, align 8
  %3 = load ptr, ptr %2, align 8
  call void @_ZNSaIcED2Ev(ptr noundef nonnull align 1 dereferenceable(1) %3) #3
  ret void
}

; Function Attrs: mustprogress uwtable
define linkonce_odr hidden void @_ZNSt7__cxx1112basic_stringIcSt11char_traitsIcESaIcEEC2IS3_EEPKcRKS3_(ptr noundef nonnull align 8 dereferenceable(32) %0, ptr noundef %1, ptr noundef nonnull align 1 dereferenceable(1) %2) unnamed_addr #4 comdat align 2 personality ptr @__gxx_personality_v0 {
  %4 = alloca ptr, align 8
  %5 = alloca ptr, align 8
  %6 = alloca ptr, align 8
  %7 = alloca ptr, align 8
  %8 = alloca i32, align 4
  %9 = alloca ptr, align 8
  store ptr %0, ptr %4, align 8
  store ptr %1, ptr %5, align 8
  store ptr %2, ptr %6, align 8
  %10 = load ptr, ptr %4, align 8
  %11 = getelementptr inbounds %"class.std::__cxx11::basic_string", ptr %10, i32 0, i32 0
  %12 = call noundef ptr @_ZNSt7__cxx1112basic_stringIcSt11char_traitsIcESaIcEE13_M_local_dataEv(ptr noundef nonnull align 8 dereferenceable(32) %10)
  %13 = load ptr, ptr %6, align 8
  call void @_ZNSt7__cxx1112basic_stringIcSt11char_traitsIcESaIcEE12_Alloc_hiderC1EPcRKS3_(ptr noundef nonnull align 8 dereferenceable(8) %11, ptr noundef %12, ptr noundef nonnull align 1 dereferenceable(1) %13)
  %14 = load ptr, ptr %5, align 8
  %15 = icmp eq ptr %14, null
  br i1 %15, label %16, label %22

16:                                               ; preds = %3
  invoke void @_ZSt19__throw_logic_errorPKc(ptr noundef @.str.164) #16
          to label %17 unwind label %18

17:                                               ; preds = %16
  unreachable

18:                                               ; preds = %22, %16
  %19 = landingpad { ptr, i32 }
          cleanup
  %20 = extractvalue { ptr, i32 } %19, 0
  store ptr %20, ptr %7, align 8
  %21 = extractvalue { ptr, i32 } %19, 1
  store i32 %21, ptr %8, align 4
  call void @_ZNSt7__cxx1112basic_stringIcSt11char_traitsIcESaIcEE12_Alloc_hiderD2Ev(ptr noundef nonnull align 8 dereferenceable(8) %11) #3
  br label %30

22:                                               ; preds = %3
  %23 = load ptr, ptr %5, align 8
  %24 = load ptr, ptr %5, align 8
  %25 = call noundef i64 @_ZNSt11char_traitsIcE6lengthEPKc(ptr noundef %24)
  %26 = getelementptr inbounds i8, ptr %23, i64 %25
  store ptr %26, ptr %9, align 8
  %27 = load ptr, ptr %5, align 8
  %28 = load ptr, ptr %9, align 8
  invoke void @_ZNSt7__cxx1112basic_stringIcSt11char_traitsIcESaIcEE12_M_constructIPKcEEvT_S8_St20forward_iterator_tag(ptr noundef nonnull align 8 dereferenceable(32) %10, ptr noundef %27, ptr noundef %28)
          to label %29 unwind label %18

29:                                               ; preds = %22
  ret void

30:                                               ; preds = %18
  %31 = load ptr, ptr %7, align 8
  %32 = load i32, ptr %8, align 4
  %33 = insertvalue { ptr, i32 } poison, ptr %31, 0
  %34 = insertvalue { ptr, i32 } %33, i32 %32, 1
  resume { ptr, i32 } %34
}

; Function Attrs: mustprogress uwtable
define noundef i32 @_ZNK6casadi17SundialsInterface9calc_jacFEPNS_14SundialsMemoryEdPKdS4_PdS5_S5_S5_(ptr noundef nonnull align 8 dereferenceable(2120) %0, ptr noundef %1, double noundef %2, ptr noundef %3, ptr noundef %4, ptr noundef %5, ptr noundef %6, ptr noundef %7, ptr noundef %8) #4 align 2 personality ptr @__gxx_personality_v0 {
  %10 = alloca ptr, align 8
  %11 = alloca ptr, align 8
  %12 = alloca double, align 8
  %13 = alloca ptr, align 8
  %14 = alloca ptr, align 8
  %15 = alloca ptr, align 8
  %16 = alloca ptr, align 8
  %17 = alloca ptr, align 8
  %18 = alloca ptr, align 8
  %19 = alloca %"class.std::__cxx11::basic_string", align 8
  %20 = alloca %"class.std::allocator.0", align 1
  %21 = alloca ptr, align 8
  %22 = alloca i32, align 4
  store ptr %0, ptr %10, align 8
  store ptr %1, ptr %11, align 8
  store double %2, ptr %12, align 8
  store ptr %3, ptr %13, align 8
  store ptr %4, ptr %14, align 8
  store ptr %5, ptr %15, align 8
  store ptr %6, ptr %16, align 8
  store ptr %7, ptr %17, align 8
  store ptr %8, ptr %18, align 8
  %23 = load ptr, ptr %10, align 8
  %24 = load ptr, ptr %11, align 8
  %25 = getelementptr inbounds %"struct.casadi::OracleMemory", ptr %24, i32 0, i32 1
  %26 = load ptr, ptr %25, align 8
  %27 = getelementptr inbounds ptr, ptr %26, i64 0
  store ptr %12, ptr %27, align 8
  %28 = load ptr, ptr %13, align 8
  %29 = load ptr, ptr %11, align 8
  %30 = getelementptr inbounds %"struct.casadi::OracleMemory", ptr %29, i32 0, i32 1
  %31 = load ptr, ptr %30, align 8
  %32 = getelementptr inbounds ptr, ptr %31, i64 1
  store ptr %28, ptr %32, align 8
  %33 = load ptr, ptr %14, align 8
  %34 = load ptr, ptr %11, align 8
  %35 = getelementptr inbounds %"struct.casadi::OracleMemory", ptr %34, i32 0, i32 1
  %36 = load ptr, ptr %35, align 8
  %37 = getelementptr inbounds ptr, ptr %36, i64 2
  store ptr %33, ptr %37, align 8
  %38 = load ptr, ptr %11, align 8
  %39 = getelementptr inbounds %"struct.casadi::SundialsMemory", ptr %38, i32 0, i32 9
  %40 = load ptr, ptr %39, align 8
  %41 = load ptr, ptr %11, align 8
  %42 = getelementptr inbounds %"struct.casadi::OracleMemory", ptr %41, i32 0, i32 1
  %43 = load ptr, ptr %42, align 8
  %44 = getelementptr inbounds ptr, ptr %43, i64 3
  store ptr %40, ptr %44, align 8
  %45 = load ptr, ptr %11, align 8
  %46 = getelementptr inbounds %"struct.casadi::SundialsMemory", ptr %45, i32 0, i32 11
  %47 = load ptr, ptr %46, align 8
  %48 = load ptr, ptr %11, align 8
  %49 = getelementptr inbounds %"struct.casadi::OracleMemory", ptr %48, i32 0, i32 1
  %50 = load ptr, ptr %49, align 8
  %51 = getelementptr inbounds ptr, ptr %50, i64 4
  store ptr %47, ptr %51, align 8
  %52 = load ptr, ptr %15, align 8
  %53 = load ptr, ptr %11, align 8
  %54 = getelementptr inbounds %"struct.casadi::OracleMemory", ptr %53, i32 0, i32 2
  %55 = load ptr, ptr %54, align 8
  %56 = getelementptr inbounds ptr, ptr %55, i64 0
  store ptr %52, ptr %56, align 8
  %57 = load ptr, ptr %16, align 8
  %58 = load ptr, ptr %11, align 8
  %59 = getelementptr inbounds %"struct.casadi::OracleMemory", ptr %58, i32 0, i32 2
  %60 = load ptr, ptr %59, align 8
  %61 = getelementptr inbounds ptr, ptr %60, i64 1
  store ptr %57, ptr %61, align 8
  %62 = load ptr, ptr %17, align 8
  %63 = load ptr, ptr %11, align 8
  %64 = getelementptr inbounds %"struct.casadi::OracleMemory", ptr %63, i32 0, i32 2
  %65 = load ptr, ptr %64, align 8
  %66 = getelementptr inbounds ptr, ptr %65, i64 2
  store ptr %62, ptr %66, align 8
  %67 = load ptr, ptr %18, align 8
  %68 = load ptr, ptr %11, align 8
  %69 = getelementptr inbounds %"struct.casadi::OracleMemory", ptr %68, i32 0, i32 2
  %70 = load ptr, ptr %69, align 8
  %71 = getelementptr inbounds ptr, ptr %70, i64 3
  store ptr %67, ptr %71, align 8
  %72 = load ptr, ptr %11, align 8
  call void @_ZNSaIcEC1Ev(ptr noundef nonnull align 1 dereferenceable(1) %20) #3
  invoke void @_ZNSt7__cxx1112basic_stringIcSt11char_traitsIcESaIcEEC2IS3_EEPKcRKS3_(ptr noundef nonnull align 8 dereferenceable(32) %19, ptr noundef @.str.70, ptr noundef nonnull align 1 dereferenceable(1) %20)
          to label %73 unwind label %76

73:                                               ; preds = %9
  %74 = invoke noundef i32 @_ZNK6casadi14OracleFunction13calc_functionEPNS_12OracleMemoryERKNSt7__cxx1112basic_stringIcSt11char_traitsIcESaIcEEEPKPKdi(ptr noundef nonnull align 8 dereferenceable(1520) %23, ptr noundef %72, ptr noundef nonnull align 8 dereferenceable(32) %19, ptr noundef null, i32 noundef 0)
          to label %75 unwind label %80

75:                                               ; preds = %73
  call void @_ZNSt7__cxx1112basic_stringIcSt11char_traitsIcESaIcEED1Ev(ptr noundef nonnull align 8 dereferenceable(32) %19) #3
  call void @_ZNSaIcED1Ev(ptr noundef nonnull align 1 dereferenceable(1) %20) #3
  ret i32 %74

76:                                               ; preds = %9
  %77 = landingpad { ptr, i32 }
          cleanup
  %78 = extractvalue { ptr, i32 } %77, 0
  store ptr %78, ptr %21, align 8
  %79 = extractvalue { ptr, i32 } %77, 1
  store i32 %79, ptr %22, align 4
  br label %84

80:                                               ; preds = %73
  %81 = landingpad { ptr, i32 }
          cleanup
  %82 = extractvalue { ptr, i32 } %81, 0
  store ptr %82, ptr %21, align 8
  %83 = extractvalue { ptr, i32 } %81, 1
  store i32 %83, ptr %22, align 4
  call void @_ZNSt7__cxx1112basic_stringIcSt11char_traitsIcESaIcEED1Ev(ptr noundef nonnull align 8 dereferenceable(32) %19) #3
  br label %84

84:                                               ; preds = %80, %76
  call void @_ZNSaIcED1Ev(ptr noundef nonnull align 1 dereferenceable(1) %20) #3
  br label %85

85:                                               ; preds = %84
  %86 = load ptr, ptr %21, align 8
  %87 = load i32, ptr %22, align 4
  %88 = insertvalue { ptr, i32 } poison, ptr %86, 0
  %89 = insertvalue { ptr, i32 } %88, i32 %87, 1
  resume { ptr, i32 } %89
}