; Function Attrs: mustprogress uwtable
define noundef i32 @_ZNK6casadi17SundialsInterface9calc_jacFEPNS_14SundialsMemoryEdPKdS4_PdS5_S5_S5_(ptr noundef nonnull align 8 dereferenceable(2120) %0, ptr noundef %1, double noundef %2, ptr noundef %3, ptr noundef %4, ptr noundef %5, ptr noundef %6, ptr noundef %7, ptr noundef %8) local_unnamed_addr #3 align 2 personality ptr @__gxx_personality_v0 {
  %10 = alloca double, align 8
  %11 = alloca %"class.std::__cxx11::basic_string", align 8
  %12 = alloca %"class.std::allocator.0", align 1
  store double %2, ptr %10, align 8
  %13 = getelementptr inbounds i8, ptr %1, i64 56
  %14 = load ptr, ptr %13, align 8
  store ptr %10, ptr %14, align 8
  %15 = load ptr, ptr %13, align 8
  %16 = getelementptr inbounds i8, ptr %15, i64 8
  store ptr %3, ptr %16, align 8
  %17 = load ptr, ptr %13, align 8
  %18 = getelementptr inbounds i8, ptr %17, i64 16
  store ptr %4, ptr %18, align 8
  %19 = getelementptr inbounds i8, ptr %1, i64 200
  %20 = load ptr, ptr %19, align 8
  %21 = load ptr, ptr %13, align 8
  %22 = getelementptr inbounds i8, ptr %21, i64 24
  store ptr %20, ptr %22, align 8
  %23 = getelementptr inbounds i8, ptr %1, i64 216
  %24 = load ptr, ptr %23, align 8
  %25 = load ptr, ptr %13, align 8
  %26 = getelementptr inbounds i8, ptr %25, i64 32
  store ptr %24, ptr %26, align 8
  %27 = getelementptr inbounds i8, ptr %1, i64 64
  %28 = load ptr, ptr %27, align 8
  store ptr %5, ptr %28, align 8
  %29 = load ptr, ptr %27, align 8
  %30 = getelementptr inbounds i8, ptr %29, i64 8
  store ptr %6, ptr %30, align 8
  %31 = load ptr, ptr %27, align 8
  %32 = getelementptr inbounds i8, ptr %31, i64 16
  store ptr %7, ptr %32, align 8
  %33 = load ptr, ptr %27, align 8
  %34 = getelementptr inbounds i8, ptr %33, i64 24
  store ptr %8, ptr %34, align 8
  call void @_ZNSaIcEC1Ev(ptr noundef nonnull align 1 dereferenceable(1) %12) #23
  %35 = invoke noundef ptr @_ZNSt7__cxx1112basic_stringIcSt11char_traitsIcESaIcEE13_M_local_dataEv(ptr noundef nonnull align 8 dereferenceable(32) %11)
          to label %.noexc unwind label %40

.noexc:                                           ; preds = %9
  invoke void @_ZNSt7__cxx1112basic_stringIcSt11char_traitsIcESaIcEE12_Alloc_hiderC1EPcRKS3_(ptr noundef nonnull align 8 dereferenceable(8) %11, ptr noundef %35, ptr noundef nonnull align 1 dereferenceable(1) %12)
          to label %.noexc22 unwind label %40

.noexc22:                                         ; preds = %.noexc
  invoke void @_ZNSt7__cxx1112basic_stringIcSt11char_traitsIcESaIcEE12_M_constructIPKcEEvT_S8_St20forward_iterator_tag(ptr noundef nonnull align 8 dereferenceable(32) %11, ptr noundef nonnull @.str.70, ptr noundef nonnull getelementptr inbounds ([5 x i8], ptr @.str.70, i64 0, i64 4))
          to label %_ZNSt7__cxx1112basic_stringIcSt11char_traitsIcESaIcEEC2IS3_EEPKcRKS3_.exit unwind label %36

36:                                               ; preds = %.noexc22
  %37 = landingpad { ptr, i32 }
          cleanup
  call void @_ZNSaIcED2Ev(ptr noundef nonnull align 1 dereferenceable(1) %11) #23
  br label %.body

_ZNSt7__cxx1112basic_stringIcSt11char_traitsIcESaIcEEC2IS3_EEPKcRKS3_.exit: ; preds = %.noexc22
  %38 = invoke noundef i32 @_ZNK6casadi14OracleFunction13calc_functionEPNS_12OracleMemoryERKNSt7__cxx1112basic_stringIcSt11char_traitsIcESaIcEEEPKPKdi(ptr noundef nonnull align 8 dereferenceable(1520) %0, ptr noundef nonnull %1, ptr noundef nonnull align 8 dereferenceable(32) %11, ptr noundef null, i32 noundef 0)
          to label %39 unwind label %42

39:                                               ; preds = %_ZNSt7__cxx1112basic_stringIcSt11char_traitsIcESaIcEEC2IS3_EEPKcRKS3_.exit
  call void @_ZNSt7__cxx1112basic_stringIcSt11char_traitsIcESaIcEED1Ev(ptr noundef nonnull align 8 dereferenceable(32) %11) #23
  call void @_ZNSaIcED1Ev(ptr noundef nonnull align 1 dereferenceable(1) %12) #23
  ret i32 %38

40:                                               ; preds = %.noexc, %9
  %41 = landingpad { ptr, i32 }
          cleanup
  br label %.body

42:                                               ; preds = %_ZNSt7__cxx1112basic_stringIcSt11char_traitsIcESaIcEEC2IS3_EEPKcRKS3_.exit
  %43 = landingpad { ptr, i32 }
          cleanup
  call void @_ZNSt7__cxx1112basic_stringIcSt11char_traitsIcESaIcEED1Ev(ptr noundef nonnull align 8 dereferenceable(32) %11) #23
  br label %.body

.body:                                            ; preds = %40, %36, %42
  %.pn = phi { ptr, i32 } [ %43, %42 ], [ %41, %40 ], [ %37, %36 ]
  call void @_ZNSaIcED1Ev(ptr noundef nonnull align 1 dereferenceable(1) %12) #23
  resume { ptr, i32 } %.pn
}